; Function Attrs: mustprogress uwtable
define void @_Z18grpc_status_createN4absl12lts_2024072210StatusCodeESt17basic_string_viewIcSt11char_traitsIcEERKN9grpc_core13DebugLocationEmPNS0_6StatusE(ptr dead_on_unwind noalias writable sret(%"class.absl::lts_20240722::Status") align 8 %0, i32 noundef %1, i64 %2, ptr %3, ptr noundef nonnull align 1 dereferenceable(1) %4, i64 noundef %5, ptr noundef readonly captures(none) %6) local_unnamed_addr #3 personality ptr @__gxx_personality_v0 {
  %8 = alloca %"class.std::vector", align 8
  %9 = alloca %"class.absl::lts_20240722::Status", align 8
  call void @llvm.memset.p0.i64(ptr noundef nonnull align 8 dereferenceable(24) %8, i8 0, i64 24, i1 false)
  invoke void @_ZN9grpc_core12StatusCreateEN4absl12lts_2024072210StatusCodeESt17basic_string_viewIcSt11char_traitsIcEERKNS_13DebugLocationESt6vectorINS1_6StatusESaISB_EE(ptr dead_on_unwind writable sret(%"class.absl::lts_20240722::Status") align 8 %0, i32 noundef %1, i64 %2, ptr %3, ptr noundef nonnull align 1 dereferenceable(1) %4, ptr noundef nonnull %8)
          to label %10 unwind label %29

10:                                               ; preds = %7
  %11 = load ptr, ptr %8, align 8, !tbaa !3
  %12 = getelementptr inbounds nuw i8, ptr %8, i64 8
  %13 = load ptr, ptr %12, align 8, !tbaa !9
  %.not4.i.i.i.i = icmp eq ptr %11, %13
  br i1 %.not4.i.i.i.i, label %_ZSt8_DestroyIPN4absl12lts_202407226StatusES2_EvT_S4_RSaIT0_E.exit.i, label %.lr.ph.i.i.i.i

.lr.ph.i.i.i.i:                                   ; preds = %10, %_ZSt8_DestroyIN4absl12lts_202407226StatusEEvPT_.exit.i.i.i.i
  %.05.i.i.i.i = phi ptr [ %21, %_ZSt8_DestroyIN4absl12lts_202407226StatusEEvPT_.exit.i.i.i.i ], [ %11, %10 ]
  %14 = load i64, ptr %.05.i.i.i.i, align 8, !tbaa !10
  %15 = and i64 %14, 1
  %.not.i.i.i.i.i.i.i = icmp eq i64 %15, 0
  br i1 %.not.i.i.i.i.i.i.i, label %16, label %_ZSt8_DestroyIN4absl12lts_202407226StatusEEvPT_.exit.i.i.i.i

16:                                               ; preds = %.lr.ph.i.i.i.i
  %17 = inttoptr i64 %14 to ptr
  invoke void @_ZNK4absl12lts_2024072215status_internal9StatusRep5UnrefEv(ptr noundef nonnull align 8 dereferenceable(48) %17)
          to label %_ZSt8_DestroyIN4absl12lts_202407226StatusEEvPT_.exit.i.i.i.i unwind label %18

18:                                               ; preds = %16
  %19 = landingpad { ptr, i32 }
          catch ptr null
  %20 = extractvalue { ptr, i32 } %19, 0
  call void @__clang_call_terminate(ptr %20) #20
  unreachable

_ZSt8_DestroyIN4absl12lts_202407226StatusEEvPT_.exit.i.i.i.i: ; preds = %16, %.lr.ph.i.i.i.i
  %21 = getelementptr inbounds nuw i8, ptr %.05.i.i.i.i, i64 8
  %.not.i.i.i.i = icmp eq ptr %21, %13
  br i1 %.not.i.i.i.i, label %_ZSt8_DestroyIPN4absl12lts_202407226StatusES2_EvT_S4_RSaIT0_E.exitthread-pre-split.i, label %.lr.ph.i.i.i.i, !llvm.loop !13

_ZSt8_DestroyIPN4absl12lts_202407226StatusES2_EvT_S4_RSaIT0_E.exitthread-pre-split.i: ; preds = %_ZSt8_DestroyIN4absl12lts_202407226StatusEEvPT_.exit.i.i.i.i
  %.pr.i = load ptr, ptr %8, align 8, !tbaa !3
  br label %_ZSt8_DestroyIPN4absl12lts_202407226StatusES2_EvT_S4_RSaIT0_E.exit.i

_ZSt8_DestroyIPN4absl12lts_202407226StatusES2_EvT_S4_RSaIT0_E.exit.i: ; preds = %_ZSt8_DestroyIPN4absl12lts_202407226StatusES2_EvT_S4_RSaIT0_E.exitthread-pre-split.i, %10
  %22 = phi ptr [ %.pr.i, %_ZSt8_DestroyIPN4absl12lts_202407226StatusES2_EvT_S4_RSaIT0_E.exitthread-pre-split.i ], [ %11, %10 ]
  %.not.i.i.i = icmp eq ptr %22, null
  br i1 %.not.i.i.i, label %_ZNSt6vectorIN4absl12lts_202407226StatusESaIS2_EED2Ev.exit, label %23

23:                                               ; preds = %_ZSt8_DestroyIPN4absl12lts_202407226StatusES2_EvT_S4_RSaIT0_E.exit.i
  %24 = getelementptr inbounds nuw i8, ptr %8, i64 16
  %25 = load ptr, ptr %24, align 8, !tbaa !15
  %26 = ptrtoint ptr %25 to i64
  %27 = ptrtoint ptr %22 to i64
  %28 = sub i64 %26, %27
  call void @_ZdlPvm(ptr noundef nonnull %22, i64 noundef %28) #21
  br label %_ZNSt6vectorIN4absl12lts_202407226StatusESaIS2_EED2Ev.exit

_ZNSt6vectorIN4absl12lts_202407226StatusESaIS2_EED2Ev.exit: ; preds = %_ZSt8_DestroyIPN4absl12lts_202407226StatusES2_EvT_S4_RSaIT0_E.exit.i, %23
  %.not = icmp eq i64 %5, 0
  br i1 %.not, label %._crit_edge, label %.lr.ph

29:                                               ; preds = %7
  %30 = landingpad { ptr, i32 }
          cleanup
  call void @_ZNSt6vectorIN4absl12lts_202407226StatusESaIS2_EED2Ev(ptr noundef nonnull align 8 dereferenceable(24) %8) #22
  br label %50

.lr.ph:                                           ; preds = %_ZNSt6vectorIN4absl12lts_202407226StatusESaIS2_EED2Ev.exit, %_ZN4absl12lts_202407226StatusD2Ev.exit
  %.019 = phi i64 [ %49, %_ZN4absl12lts_202407226StatusD2Ev.exit ], [ 0, %_ZNSt6vectorIN4absl12lts_202407226StatusESaIS2_EED2Ev.exit ]
  %31 = getelementptr inbounds nuw %"class.absl::lts_20240722::Status", ptr %6, i64 %.019
  %32 = load i64, ptr %31, align 8, !tbaa !10
  %33 = icmp eq i64 %32, 1
  br i1 %33, label %_ZN4absl12lts_202407226StatusD2Ev.exit, label %34

34:                                               ; preds = %.lr.ph
  store i64 %32, ptr %9, align 8, !tbaa !10
  %35 = and i64 %32, 1
  %.not.i.i = icmp eq i64 %35, 0
  br i1 %.not.i.i, label %36, label %_ZN4absl12lts_202407226StatusC2ERKS1_.exit

36:                                               ; preds = %34
  %37 = inttoptr i64 %32 to ptr
  %38 = atomicrmw add ptr %37, i32 1 monotonic, align 4
  br label %_ZN4absl12lts_202407226StatusC2ERKS1_.exit

_ZN4absl12lts_202407226StatusC2ERKS1_.exit:       ; preds = %36, %34
  invoke void @_ZN9grpc_core14StatusAddChildEPN4absl12lts_202407226StatusES2_(ptr noundef %0, ptr noundef nonnull %9)
          to label %39 unwind label %47

39:                                               ; preds = %_ZN4absl12lts_202407226StatusC2ERKS1_.exit
  %40 = load i64, ptr %9, align 8, !tbaa !10
  %41 = and i64 %40, 1
  %.not.i.i18 = icmp eq i64 %41, 0
  br i1 %.not.i.i18, label %42, label %_ZN4absl12lts_202407226StatusD2Ev.exit

42:                                               ; preds = %39
  %43 = inttoptr i64 %40 to ptr
  invoke void @_ZNK4absl12lts_2024072215status_internal9StatusRep5UnrefEv(ptr noundef nonnull align 8 dereferenceable(48) %43)
          to label %_ZN4absl12lts_202407226StatusD2Ev.exit unwind label %44

44:                                               ; preds = %42
  %45 = landingpad { ptr, i32 }
          catch ptr null
  %46 = extractvalue { ptr, i32 } %45, 0
  call void @__clang_call_terminate(ptr %46) #20
  unreachable

47:                                               ; preds = %_ZN4absl12lts_202407226StatusC2ERKS1_.exit
  %48 = landingpad { ptr, i32 }
          cleanup
  call void @_ZN4absl12lts_202407226StatusD2Ev(ptr noundef nonnull align 8 dereferenceable(8) %9) #22
  call void @_ZN4absl12lts_202407226StatusD2Ev(ptr noundef nonnull align 8 dereferenceable(8) %0) #22
  br label %50

_ZN4absl12lts_202407226StatusD2Ev.exit:           ; preds = %42, %39, %.lr.ph
  %49 = add nuw i64 %.019, 1
  %exitcond.not = icmp eq i64 %49, %5
  br i1 %exitcond.not, label %._crit_edge, label %.lr.ph, !llvm.loop !16

._crit_edge:                                      ; preds = %_ZN4absl12lts_202407226StatusD2Ev.exit, %_ZNSt6vectorIN4absl12lts_202407226StatusESaIS2_EED2Ev.exit
  ret void

50:                                               ; preds = %47, %29
  %.pn.pn = phi { ptr, i32 } [ %48, %47 ], [ %30, %29 ]
  resume { ptr, i32 } %.pn.pn
}